; Function Attrs: mustprogress uwtable
define dso_local void @_ZN4Luau9Subtyping15isCovariantWithERNS_20SubtypingEnvironmentEPKNS_9ClassTypeES5_NS_7NotNullINS_5ScopeEEE(ptr dead_on_unwind noalias writable sret(%"struct.Luau::SubtypingResult") align 8 initializes((0, 3), (8, 56)) %0, ptr nonnull readnone align 8 captures(none) %1, ptr nonnull readnone align 8 captures(none) %2, ptr noundef %3, ptr noundef %4, ptr readnone captures(none) %5) local_unnamed_addr #4 align 2 personality ptr @__gxx_personality_v0 {
  %7 = tail call noundef zeroext i1 @_ZN4Luau10isSubclassEPKNS_9ClassTypeES2_(ptr noundef %3, ptr noundef %4)
  %8 = zext i1 %7 to i8
  store i8 %8, ptr %0, align 8, !tbaa !26
  %9 = getelementptr inbounds nuw i8, ptr %0, i64 1
  store i8 0, ptr %9, align 1, !tbaa !42
  %10 = getelementptr inbounds nuw i8, ptr %0, i64 2
  store i8 1, ptr %10, align 2, !tbaa !43
  %11 = getelementptr inbounds nuw i8, ptr %0, i64 8
  %12 = getelementptr inbounds nuw i8, ptr %0, i64 56
  tail call void @llvm.memset.p0.i64(ptr noundef nonnull align 8 dereferenceable(48) %11, i8 0, i64 48, i1 false)
  invoke void @_ZNSt6vectorIN4Luau7VariantIJNS0_8TypePath8PropertyENS2_5IndexENS2_9TypeFieldENS2_9PackFieldENS2_9ReductionEEEESaIS8_EEC2ERKSA_(ptr noundef nonnull align 8 dereferenceable(52) %12, ptr noundef nonnull align 8 dereferenceable(52) @_ZN4LuauL15kEmptyReasoningE)
          to label %.noexc unwind label %19

.noexc:                                           ; preds = %6
  %13 = getelementptr inbounds nuw i8, ptr %0, i64 80
  invoke void @_ZNSt6vectorIN4Luau7VariantIJNS0_8TypePath8PropertyENS2_5IndexENS2_9TypeFieldENS2_9PackFieldENS2_9ReductionEEEESaIS8_EEC2ERKSA_(ptr noundef nonnull align 8 dereferenceable(24) %13, ptr noundef nonnull align 8 dereferenceable(24) getelementptr inbounds nuw (i8, ptr @_ZN4LuauL15kEmptyReasoningE, i64 24))
          to label %16 unwind label %14

14:                                               ; preds = %.noexc
  %15 = landingpad { ptr, i32 }
          cleanup
  tail call void @_ZN4Luau8TypePath4PathD2Ev(ptr noundef nonnull align 8 dereferenceable(52) %12) #29
  br label %.body

16:                                               ; preds = %.noexc
  %17 = getelementptr inbounds nuw i8, ptr %0, i64 104
  %18 = load i32, ptr getelementptr inbounds nuw (i8, ptr @_ZN4LuauL15kEmptyReasoningE, i64 48), align 8, !tbaa !19
  store i32 %18, ptr %17, align 8, !tbaa !19
  ret void

19:                                               ; preds = %6
  %20 = landingpad { ptr, i32 }
          cleanup
  br label %.body

.body:                                            ; preds = %14, %19
  %eh.lpad-body = phi { ptr, i32 } [ %20, %19 ], [ %15, %14 ]
  tail call void @_ZNSt6vectorIN4Luau9TypeErrorESaIS1_EED2Ev(ptr noundef nonnull align 8 dereferenceable(24) %11) #29
  resume { ptr, i32 } %eh.lpad-body
}